
/home/ysyx/OneStudentOneChip/pa2/am-kernels_dev/tests/cpu-tests/build/bit-riscv64-nemu.elf:     file format elf64-littleriscv


Disassembly of section .text:

0000000080000000 <_start>:
    80000000:	00000413          	addi	s0,zero,0
    80000004:	00009117          	auipc	sp,0x9
    80000008:	ffc10113          	addi	sp,sp,-4 # 80009000 <_end>
    8000000c:	1fc000ef          	jal	ra,80000208 <_trm_init>

0000000080000010 <check>:
    80000010:	00050463          	beq	a0,zero,80000018 <check+0x8>
    80000014:	00008067          	jalr	zero,0(ra)
    80000018:	ff010113          	addi	sp,sp,-16
    8000001c:	00100513          	addi	a0,zero,1
    80000020:	00113423          	sd	ra,8(sp)
    80000024:	1d8000ef          	jal	ra,800001fc <halt>

0000000080000028 <getbit>:
    80000028:	4035d793          	srai	a5,a1,0x3
    8000002c:	00f50533          	add	a0,a0,a5
    80000030:	00054503          	lbu	a0,0(a0)
    80000034:	00100793          	addi	a5,zero,1
    80000038:	0075f593          	andi	a1,a1,7
    8000003c:	00b795bb          	sllw	a1,a5,a1
    80000040:	00b57533          	and	a0,a0,a1
    80000044:	00a03533          	sltu	a0,zero,a0
    80000048:	00008067          	jalr	zero,0(ra)

000000008000004c <setbit>:
    8000004c:	4035d793          	srai	a5,a1,0x3
    80000050:	ff010113          	addi	sp,sp,-16
    80000054:	00f50533          	add	a0,a0,a5
    80000058:	00a13423          	sd	a0,8(sp)
    8000005c:	0075f793          	andi	a5,a1,7
    80000060:	00100593          	addi	a1,zero,1
    80000064:	00f595bb          	sllw	a1,a1,a5
    80000068:	00813783          	ld	a5,8(sp)
    8000006c:	02061063          	bne	a2,zero,8000008c <setbit+0x40>
    80000070:	0007c783          	lbu	a5,0(a5)
    80000074:	fff5c593          	xori	a1,a1,-1
    80000078:	00f5f5b3          	and	a1,a1,a5
    8000007c:	00813783          	ld	a5,8(sp)
    80000080:	00b78023          	sb	a1,0(a5)
    80000084:	01010113          	addi	sp,sp,16
    80000088:	00008067          	jalr	zero,0(ra)
    8000008c:	0007c783          	lbu	a5,0(a5)
    80000090:	00f5e5b3          	or	a1,a1,a5
    80000094:	00813783          	ld	a5,8(sp)
    80000098:	0ff5f593          	andi	a1,a1,255
    8000009c:	00b78023          	sb	a1,0(a5)
    800000a0:	01010113          	addi	sp,sp,16
    800000a4:	00008067          	jalr	zero,0(ra)

00000000800000a8 <main>:
    800000a8:	fe010113          	addi	sp,sp,-32
    800000ac:	faa00793          	addi	a5,zero,-86
    800000b0:	00000593          	addi	a1,zero,0
    800000b4:	00810513          	addi	a0,sp,8
    800000b8:	00113c23          	sd	ra,24(sp)
    800000bc:	00f10423          	sb	a5,8(sp)
    800000c0:	000104a3          	sb	zero,9(sp)
    800000c4:	f65ff0ef          	jal	ra,80000028 <getbit>
    800000c8:	00154513          	xori	a0,a0,1
    800000cc:	0ff57513          	andi	a0,a0,255
    800000d0:	f41ff0ef          	jal	ra,80000010 <check>
    800000d4:	00100593          	addi	a1,zero,1
    800000d8:	00810513          	addi	a0,sp,8
    800000dc:	f4dff0ef          	jal	ra,80000028 <getbit>
    800000e0:	f31ff0ef          	jal	ra,80000010 <check>
    800000e4:	00200593          	addi	a1,zero,2
    800000e8:	00810513          	addi	a0,sp,8
    800000ec:	f3dff0ef          	jal	ra,80000028 <getbit>
    800000f0:	00154513          	xori	a0,a0,1
    800000f4:	0ff57513          	andi	a0,a0,255
    800000f8:	f19ff0ef          	jal	ra,80000010 <check>
    800000fc:	00300593          	addi	a1,zero,3
    80000100:	00810513          	addi	a0,sp,8
    80000104:	f25ff0ef          	jal	ra,80000028 <getbit>
    80000108:	f09ff0ef          	jal	ra,80000010 <check>
    8000010c:	00400593          	addi	a1,zero,4
    80000110:	00810513          	addi	a0,sp,8
    80000114:	f15ff0ef          	jal	ra,80000028 <getbit>
    80000118:	00154513          	xori	a0,a0,1
    8000011c:	0ff57513          	andi	a0,a0,255
    80000120:	ef1ff0ef          	jal	ra,80000010 <check>
    80000124:	00500593          	addi	a1,zero,5
    80000128:	00810513          	addi	a0,sp,8
    8000012c:	efdff0ef          	jal	ra,80000028 <getbit>
    80000130:	ee1ff0ef          	jal	ra,80000010 <check>
    80000134:	00600593          	addi	a1,zero,6
    80000138:	00810513          	addi	a0,sp,8
    8000013c:	eedff0ef          	jal	ra,80000028 <getbit>
    80000140:	00154513          	xori	a0,a0,1
    80000144:	0ff57513          	andi	a0,a0,255
    80000148:	ec9ff0ef          	jal	ra,80000010 <check>
    8000014c:	00700593          	addi	a1,zero,7
    80000150:	00810513          	addi	a0,sp,8
    80000154:	ed5ff0ef          	jal	ra,80000028 <getbit>
    80000158:	eb9ff0ef          	jal	ra,80000010 <check>
    8000015c:	00810513          	addi	a0,sp,8
    80000160:	00100613          	addi	a2,zero,1
    80000164:	00800593          	addi	a1,zero,8
    80000168:	ee5ff0ef          	jal	ra,8000004c <setbit>
    8000016c:	00810513          	addi	a0,sp,8
    80000170:	00000613          	addi	a2,zero,0
    80000174:	00900593          	addi	a1,zero,9
    80000178:	ed5ff0ef          	jal	ra,8000004c <setbit>
    8000017c:	00810513          	addi	a0,sp,8
    80000180:	00100613          	addi	a2,zero,1
    80000184:	00a00593          	addi	a1,zero,10
    80000188:	ec5ff0ef          	jal	ra,8000004c <setbit>
    8000018c:	00810513          	addi	a0,sp,8
    80000190:	00000613          	addi	a2,zero,0
    80000194:	00b00593          	addi	a1,zero,11
    80000198:	eb5ff0ef          	jal	ra,8000004c <setbit>
    8000019c:	00810513          	addi	a0,sp,8
    800001a0:	00100613          	addi	a2,zero,1
    800001a4:	00c00593          	addi	a1,zero,12
    800001a8:	ea5ff0ef          	jal	ra,8000004c <setbit>
    800001ac:	00810513          	addi	a0,sp,8
    800001b0:	00000613          	addi	a2,zero,0
    800001b4:	00d00593          	addi	a1,zero,13
    800001b8:	e95ff0ef          	jal	ra,8000004c <setbit>
    800001bc:	00810513          	addi	a0,sp,8
    800001c0:	00100613          	addi	a2,zero,1
    800001c4:	00e00593          	addi	a1,zero,14
    800001c8:	e85ff0ef          	jal	ra,8000004c <setbit>
    800001cc:	00810513          	addi	a0,sp,8
    800001d0:	00000613          	addi	a2,zero,0
    800001d4:	00f00593          	addi	a1,zero,15
    800001d8:	e75ff0ef          	jal	ra,8000004c <setbit>
    800001dc:	00914503          	lbu	a0,9(sp)
    800001e0:	fab50513          	addi	a0,a0,-85
    800001e4:	00153513          	sltiu	a0,a0,1
    800001e8:	e29ff0ef          	jal	ra,80000010 <check>
    800001ec:	01813083          	ld	ra,24(sp)
    800001f0:	00000513          	addi	a0,zero,0
    800001f4:	02010113          	addi	sp,sp,32
    800001f8:	00008067          	jalr	zero,0(ra)

00000000800001fc <halt>:
    800001fc:	00050513          	addi	a0,a0,0
    80000200:	00100073          	ebreak
    80000204:	0000006f          	jal	zero,80000204 <halt+0x8>

0000000080000208 <_trm_init>:
    80000208:	ff010113          	addi	sp,sp,-16
    8000020c:	00000517          	auipc	a0,0x0
    80000210:	01c50513          	addi	a0,a0,28 # 80000228 <_etext>
    80000214:	00113423          	sd	ra,8(sp)
    80000218:	e91ff0ef          	jal	ra,800000a8 <main>
    8000021c:	00050513          	addi	a0,a0,0
    80000220:	00100073          	ebreak
    80000224:	0000006f          	jal	zero,80000224 <_trm_init+0x1c>
