
/home/ysyx/OneStudentOneChip/pa2/am-kernels_dev/tests/cpu-tests/build/fact-riscv64-nemu.elf:     file format elf64-littleriscv


Disassembly of section .text:

0000000080000000 <_start>:
    80000000:	00000413          	addi	s0,zero,0
    80000004:	00009117          	auipc	sp,0x9
    80000008:	ffc10113          	addi	sp,sp,-4 # 80009000 <_end>
    8000000c:	0ec000ef          	jal	ra,800000f8 <_trm_init>

0000000080000010 <check>:
    80000010:	00050463          	beq	a0,zero,80000018 <check+0x8>
    80000014:	00008067          	jalr	zero,0(ra)
    80000018:	ff010113          	addi	sp,sp,-16
    8000001c:	00100513          	addi	a0,zero,1
    80000020:	00113423          	sd	ra,8(sp)
    80000024:	0c8000ef          	jal	ra,800000ec <halt>

0000000080000028 <main>:
    80000028:	fd010113          	addi	sp,sp,-48
    8000002c:	01213823          	sd	s2,16(sp)
    80000030:	00000917          	auipc	s2,0x0
    80000034:	0f090913          	addi	s2,s2,240 # 80000120 <ans>
    80000038:	00092783          	lw	a5,0(s2)
    8000003c:	01313423          	sd	s3,8(sp)
    80000040:	00100513          	addi	a0,zero,1
    80000044:	00000997          	auipc	s3,0x0
    80000048:	11498993          	addi	s3,s3,276 # 80000158 <f>
    8000004c:	00913c23          	sd	s1,24(sp)
    80000050:	00a9a023          	sw	a0,0(s3)
    80000054:	00000493          	addi	s1,zero,0
    80000058:	40a78533          	sub	a0,a5,a0
    8000005c:	01413023          	sd	s4,0(sp)
    80000060:	0014849b          	addiw	s1,s1,1
    80000064:	00d00a13          	addi	s4,zero,13
    80000068:	00153513          	sltiu	a0,a0,1
    8000006c:	02813023          	sd	s0,32(sp)
    80000070:	02113423          	sd	ra,40(sp)
    80000074:	00100413          	addi	s0,zero,1
    80000078:	f99ff0ef          	jal	ra,80000010 <check>
    8000007c:	05448263          	beq	s1,s4,800000c0 <main+0x98>
    80000080:	06848263          	beq	s1,s0,800000e4 <main+0xbc>
    80000084:	00048793          	addi	a5,s1,0
    80000088:	00100513          	addi	a0,zero,1
    8000008c:	00078713          	addi	a4,a5,0
    80000090:	fff7879b          	addiw	a5,a5,-1
    80000094:	02a7053b          	mulw	a0,a4,a0
    80000098:	fe879ae3          	bne	a5,s0,8000008c <main+0x64>
    8000009c:	00492783          	lw	a5,4(s2)
    800000a0:	00a9a223          	sw	a0,4(s3)
    800000a4:	0014849b          	addiw	s1,s1,1
    800000a8:	40a78533          	sub	a0,a5,a0
    800000ac:	00153513          	sltiu	a0,a0,1
    800000b0:	00498993          	addi	s3,s3,4
    800000b4:	00490913          	addi	s2,s2,4
    800000b8:	f59ff0ef          	jal	ra,80000010 <check>
    800000bc:	fd4492e3          	bne	s1,s4,80000080 <main+0x58>
    800000c0:	02813083          	ld	ra,40(sp)
    800000c4:	02013403          	ld	s0,32(sp)
    800000c8:	01813483          	ld	s1,24(sp)
    800000cc:	01013903          	ld	s2,16(sp)
    800000d0:	00813983          	ld	s3,8(sp)
    800000d4:	00013a03          	ld	s4,0(sp)
    800000d8:	00000513          	addi	a0,zero,0
    800000dc:	03010113          	addi	sp,sp,48
    800000e0:	00008067          	jalr	zero,0(ra)
    800000e4:	00100513          	addi	a0,zero,1
    800000e8:	fb5ff06f          	jal	zero,8000009c <main+0x74>

00000000800000ec <halt>:
    800000ec:	00050513          	addi	a0,a0,0
    800000f0:	00100073          	ebreak
    800000f4:	0000006f          	jal	zero,800000f4 <halt+0x8>

00000000800000f8 <_trm_init>:
    800000f8:	ff010113          	addi	sp,sp,-16
    800000fc:	00000517          	auipc	a0,0x0
    80000100:	01c50513          	addi	a0,a0,28 # 80000118 <_etext>
    80000104:	00113423          	sd	ra,8(sp)
    80000108:	f21ff0ef          	jal	ra,80000028 <main>
    8000010c:	00050513          	addi	a0,a0,0
    80000110:	00100073          	ebreak
    80000114:	0000006f          	jal	zero,80000114 <_trm_init+0x1c>
