
/home/ysyx/OneStudentOneChip/pa2/am-kernels_dev/tests/cpu-tests/build/hello-str-riscv64-nemu.elf:     file format elf64-littleriscv


Disassembly of section .text:

0000000080000000 <_start>:
    80000000:	00000413          	addi	s0,zero,0
    80000004:	00009117          	auipc	sp,0x9
    80000008:	ffc10113          	addi	sp,sp,-4 # 80009000 <_end>
    8000000c:	0f8000ef          	jal	ra,80000104 <_trm_init>

0000000080000010 <check>:
    80000010:	00050463          	beq	a0,zero,80000018 <check+0x8>
    80000014:	00008067          	jalr	zero,0(ra)
    80000018:	ff010113          	addi	sp,sp,-16
    8000001c:	00100513          	addi	a0,zero,1
    80000020:	00113423          	sd	ra,8(sp)
    80000024:	0d4000ef          	jal	ra,800000f8 <halt>

0000000080000028 <main>:
    80000028:	ff010113          	addi	sp,sp,-16
    8000002c:	00813023          	sd	s0,0(sp)
    80000030:	00000417          	auipc	s0,0x0
    80000034:	39840413          	addi	s0,s0,920 # 800003c8 <buf>
    80000038:	00000617          	auipc	a2,0x0
    8000003c:	1d860613          	addi	a2,a2,472 # 80000210 <_etext+0x4>
    80000040:	00000597          	auipc	a1,0x0
    80000044:	1e058593          	addi	a1,a1,480 # 80000220 <_etext+0x14>
    80000048:	00040513          	addi	a0,s0,0
    8000004c:	00113423          	sd	ra,8(sp)
    80000050:	13c000ef          	jal	ra,8000018c <sprintf>
    80000054:	00000597          	auipc	a1,0x0
    80000058:	1bc58593          	addi	a1,a1,444 # 80000210 <_etext+0x4>
    8000005c:	00040513          	addi	a0,s0,0
    80000060:	0c4000ef          	jal	ra,80000124 <strcmp>
    80000064:	00153513          	sltiu	a0,a0,1
    80000068:	fa9ff0ef          	jal	ra,80000010 <check>
    8000006c:	00200713          	addi	a4,zero,2
    80000070:	00100693          	addi	a3,zero,1
    80000074:	00100613          	addi	a2,zero,1
    80000078:	00000597          	auipc	a1,0x0
    8000007c:	1b058593          	addi	a1,a1,432 # 80000228 <_etext+0x1c>
    80000080:	00040513          	addi	a0,s0,0
    80000084:	108000ef          	jal	ra,8000018c <sprintf>
    80000088:	00000597          	auipc	a1,0x0
    8000008c:	1b058593          	addi	a1,a1,432 # 80000238 <_etext+0x2c>
    80000090:	00040513          	addi	a0,s0,0
    80000094:	090000ef          	jal	ra,80000124 <strcmp>
    80000098:	00153513          	sltiu	a0,a0,1
    8000009c:	f75ff0ef          	jal	ra,80000010 <check>
    800000a0:	00c00713          	addi	a4,zero,12
    800000a4:	00a00693          	addi	a3,zero,10
    800000a8:	00200613          	addi	a2,zero,2
    800000ac:	00000597          	auipc	a1,0x0
    800000b0:	17c58593          	addi	a1,a1,380 # 80000228 <_etext+0x1c>
    800000b4:	00040513          	addi	a0,s0,0
    800000b8:	0d4000ef          	jal	ra,8000018c <sprintf>
    800000bc:	00000597          	auipc	a1,0x0
    800000c0:	18c58593          	addi	a1,a1,396 # 80000248 <_etext+0x3c>
    800000c4:	00040513          	addi	a0,s0,0
    800000c8:	05c000ef          	jal	ra,80000124 <strcmp>
    800000cc:	00153513          	sltiu	a0,a0,1
    800000d0:	f41ff0ef          	jal	ra,80000010 <check>
    800000d4:	00813083          	ld	ra,8(sp)
    800000d8:	00013403          	ld	s0,0(sp)
    800000dc:	00000513          	addi	a0,zero,0
    800000e0:	01010113          	addi	sp,sp,16
    800000e4:	00008067          	jalr	zero,0(ra)

00000000800000e8 <putch>:
    800000e8:	00500793          	addi	a5,zero,5
    800000ec:	01d79793          	slli	a5,a5,0x1d
    800000f0:	3ea78c23          	sb	a0,1016(a5)
    800000f4:	00008067          	jalr	zero,0(ra)

00000000800000f8 <halt>:
    800000f8:	00050513          	addi	a0,a0,0
    800000fc:	00100073          	ebreak
    80000100:	0000006f          	jal	zero,80000100 <halt+0x8>

0000000080000104 <_trm_init>:
    80000104:	ff010113          	addi	sp,sp,-16
    80000108:	00000517          	auipc	a0,0x0
    8000010c:	2b850513          	addi	a0,a0,696 # 800003c0 <mainargs>
    80000110:	00113423          	sd	ra,8(sp)
    80000114:	f15ff0ef          	jal	ra,80000028 <main>
    80000118:	00050513          	addi	a0,a0,0
    8000011c:	00100073          	ebreak
    80000120:	0000006f          	jal	zero,80000120 <_trm_init+0x1c>

0000000080000124 <strcmp>:
    80000124:	ff010113          	addi	sp,sp,-16
    80000128:	00813023          	sd	s0,0(sp)
    8000012c:	00113423          	sd	ra,8(sp)
    80000130:	00000417          	auipc	s0,0x0
    80000134:	12840413          	addi	s0,s0,296 # 80000258 <_etext+0x4c>
    80000138:	04100513          	addi	a0,zero,65
    8000013c:	00140413          	addi	s0,s0,1
    80000140:	fa9ff0ef          	jal	ra,800000e8 <putch>
    80000144:	00044503          	lbu	a0,0(s0)
    80000148:	fe051ae3          	bne	a0,zero,8000013c <strcmp+0x18>
    8000014c:	00000417          	auipc	s0,0x0
    80000150:	11c40413          	addi	s0,s0,284 # 80000268 <_etext+0x5c>
    80000154:	04e00513          	addi	a0,zero,78
    80000158:	00140413          	addi	s0,s0,1
    8000015c:	f8dff0ef          	jal	ra,800000e8 <putch>
    80000160:	00044503          	lbu	a0,0(s0)
    80000164:	fe051ae3          	bne	a0,zero,80000158 <strcmp+0x34>
    80000168:	00000417          	auipc	s0,0x0
    8000016c:	16040413          	addi	s0,s0,352 # 800002c8 <_etext+0xbc>
    80000170:	02000513          	addi	a0,zero,32
    80000174:	00140413          	addi	s0,s0,1
    80000178:	f71ff0ef          	jal	ra,800000e8 <putch>
    8000017c:	00044503          	lbu	a0,0(s0)
    80000180:	fe051ae3          	bne	a0,zero,80000174 <strcmp+0x50>
    80000184:	00100513          	addi	a0,zero,1
    80000188:	f71ff0ef          	jal	ra,800000f8 <halt>

000000008000018c <sprintf>:
    8000018c:	fc010113          	addi	sp,sp,-64
    80000190:	00813023          	sd	s0,0(sp)
    80000194:	00113423          	sd	ra,8(sp)
    80000198:	00c13823          	sd	a2,16(sp)
    8000019c:	00d13c23          	sd	a3,24(sp)
    800001a0:	02e13023          	sd	a4,32(sp)
    800001a4:	02f13423          	sd	a5,40(sp)
    800001a8:	03013823          	sd	a6,48(sp)
    800001ac:	03113c23          	sd	a7,56(sp)
    800001b0:	00000417          	auipc	s0,0x0
    800001b4:	0a840413          	addi	s0,s0,168 # 80000258 <_etext+0x4c>
    800001b8:	04100513          	addi	a0,zero,65
    800001bc:	00140413          	addi	s0,s0,1
    800001c0:	f29ff0ef          	jal	ra,800000e8 <putch>
    800001c4:	00044503          	lbu	a0,0(s0)
    800001c8:	fe051ae3          	bne	a0,zero,800001bc <sprintf+0x30>
    800001cc:	00000417          	auipc	s0,0x0
    800001d0:	09c40413          	addi	s0,s0,156 # 80000268 <_etext+0x5c>
    800001d4:	04e00513          	addi	a0,zero,78
    800001d8:	00140413          	addi	s0,s0,1
    800001dc:	f0dff0ef          	jal	ra,800000e8 <putch>
    800001e0:	00044503          	lbu	a0,0(s0)
    800001e4:	fe051ae3          	bne	a0,zero,800001d8 <sprintf+0x4c>
    800001e8:	00000417          	auipc	s0,0x0
    800001ec:	18840413          	addi	s0,s0,392 # 80000370 <_etext+0x164>
    800001f0:	02000513          	addi	a0,zero,32
    800001f4:	00140413          	addi	s0,s0,1
    800001f8:	ef1ff0ef          	jal	ra,800000e8 <putch>
    800001fc:	00044503          	lbu	a0,0(s0)
    80000200:	fe051ae3          	bne	a0,zero,800001f4 <sprintf+0x68>
    80000204:	00100513          	addi	a0,zero,1
    80000208:	ef1ff0ef          	jal	ra,800000f8 <halt>
