
/home/ysyx/OneStudentOneChip/pa2/am-kernels_dev/tests/cpu-tests/build/load-store-riscv64-nemu.elf:     file format elf64-littleriscv


Disassembly of section .text:

0000000080000000 <_start>:
    80000000:	00000413          	addi	s0,zero,0
    80000004:	00009117          	auipc	sp,0x9
    80000008:	ffc10113          	addi	sp,sp,-4 # 80009000 <_end>
    8000000c:	1dc000ef          	jal	ra,800001e8 <_trm_init>

0000000080000010 <check>:
    80000010:	00050463          	beq	a0,zero,80000018 <check+0x8>
    80000014:	00008067          	jalr	zero,0(ra)
    80000018:	ff010113          	addi	sp,sp,-16
    8000001c:	00100513          	addi	a0,zero,1
    80000020:	00113423          	sd	ra,8(sp)
    80000024:	1b8000ef          	jal	ra,800001dc <halt>

0000000080000028 <main>:
    80000028:	fd010113          	addi	sp,sp,-48
    8000002c:	01313423          	sd	s3,8(sp)
    80000030:	00000997          	auipc	s3,0x0
    80000034:	23098993          	addi	s3,s3,560 # 80000260 <mem>
    80000038:	02813023          	sd	s0,32(sp)
    8000003c:	00913c23          	sd	s1,24(sp)
    80000040:	01213823          	sd	s2,16(sp)
    80000044:	02113423          	sd	ra,40(sp)
    80000048:	01413023          	sd	s4,0(sp)
    8000004c:	00000917          	auipc	s2,0x0
    80000050:	1c490913          	addi	s2,s2,452 # 80000210 <lh_ans>
    80000054:	00000497          	auipc	s1,0x0
    80000058:	21c48493          	addi	s1,s1,540 # 80000270 <sh_ans>
    8000005c:	00098413          	addi	s0,s3,0
    80000060:	00041503          	lh	a0,0(s0)
    80000064:	00092783          	lw	a5,0(s2)
    80000068:	00240413          	addi	s0,s0,2
    8000006c:	00490913          	addi	s2,s2,4
    80000070:	40f50533          	sub	a0,a0,a5
    80000074:	00153513          	sltiu	a0,a0,1
    80000078:	f99ff0ef          	jal	ra,80000010 <check>
    8000007c:	fe9412e3          	bne	s0,s1,80000060 <main+0x38>
    80000080:	00000917          	auipc	s2,0x0
    80000084:	1b090913          	addi	s2,s2,432 # 80000230 <lhu_ans>
    80000088:	00000417          	auipc	s0,0x0
    8000008c:	1d840413          	addi	s0,s0,472 # 80000260 <mem>
    80000090:	00045503          	lhu	a0,0(s0)
    80000094:	00092783          	lw	a5,0(s2)
    80000098:	00240413          	addi	s0,s0,2
    8000009c:	00490913          	addi	s2,s2,4
    800000a0:	40f50533          	sub	a0,a0,a5
    800000a4:	00153513          	sltiu	a0,a0,1
    800000a8:	f69ff0ef          	jal	ra,80000010 <check>
    800000ac:	fe9412e3          	bne	s0,s1,80000090 <main+0x68>
    800000b0:	0029c703          	lbu	a4,2(s3)
    800000b4:	0019c683          	lbu	a3,1(s3)
    800000b8:	0039c783          	lbu	a5,3(s3)
    800000bc:	0049c503          	lbu	a0,4(s3)
    800000c0:	00871713          	slli	a4,a4,0x8
    800000c4:	00000417          	auipc	s0,0x0
    800000c8:	18c40413          	addi	s0,s0,396 # 80000250 <lwlr_ans>
    800000cc:	00d76733          	or	a4,a4,a3
    800000d0:	01079793          	slli	a5,a5,0x10
    800000d4:	00e7e7b3          	or	a5,a5,a4
    800000d8:	01851513          	slli	a0,a0,0x18
    800000dc:	00042703          	lw	a4,0(s0)
    800000e0:	00f56533          	or	a0,a0,a5
    800000e4:	0005051b          	addiw	a0,a0,0
    800000e8:	40a70533          	sub	a0,a4,a0
    800000ec:	00153513          	sltiu	a0,a0,1
    800000f0:	f21ff0ef          	jal	ra,80000010 <check>
    800000f4:	0069c703          	lbu	a4,6(s3)
    800000f8:	0059c683          	lbu	a3,5(s3)
    800000fc:	0079c783          	lbu	a5,7(s3)
    80000100:	0089c503          	lbu	a0,8(s3)
    80000104:	00871713          	slli	a4,a4,0x8
    80000108:	00d76733          	or	a4,a4,a3
    8000010c:	01079793          	slli	a5,a5,0x10
    80000110:	00e7e7b3          	or	a5,a5,a4
    80000114:	01851513          	slli	a0,a0,0x18
    80000118:	00442703          	lw	a4,4(s0)
    8000011c:	00f56533          	or	a0,a0,a5
    80000120:	0005051b          	addiw	a0,a0,0
    80000124:	40a70533          	sub	a0,a4,a0
    80000128:	00153513          	sltiu	a0,a0,1
    8000012c:	ee5ff0ef          	jal	ra,80000010 <check>
    80000130:	00a9c703          	lbu	a4,10(s3)
    80000134:	0099c683          	lbu	a3,9(s3)
    80000138:	00b9c783          	lbu	a5,11(s3)
    8000013c:	00c9c503          	lbu	a0,12(s3)
    80000140:	00871713          	slli	a4,a4,0x8
    80000144:	00d76733          	or	a4,a4,a3
    80000148:	01079793          	slli	a5,a5,0x10
    8000014c:	00e7e7b3          	or	a5,a5,a4
    80000150:	01851513          	slli	a0,a0,0x18
    80000154:	00842703          	lw	a4,8(s0)
    80000158:	00f56533          	or	a0,a0,a5
    8000015c:	0005051b          	addiw	a0,a0,0
    80000160:	40a70533          	sub	a0,a4,a0
    80000164:	00153513          	sltiu	a0,a0,1
    80000168:	00100a13          	addi	s4,zero,1
    8000016c:	ea5ff0ef          	jal	ra,80000010 <check>
    80000170:	00000917          	auipc	s2,0x0
    80000174:	10090913          	addi	s2,s2,256 # 80000270 <sh_ans>
    80000178:	00000417          	auipc	s0,0x0
    8000017c:	0e840413          	addi	s0,s0,232 # 80000260 <mem>
    80000180:	413a09bb          	subw	s3,s4,s3
    80000184:	008987bb          	addw	a5,s3,s0
    80000188:	00fa17bb          	sllw	a5,s4,a5
    8000018c:	00092503          	lw	a0,0(s2)
    80000190:	fff7c793          	xori	a5,a5,-1
    80000194:	03079793          	slli	a5,a5,0x30
    80000198:	0307d793          	srli	a5,a5,0x30
    8000019c:	40f50533          	sub	a0,a0,a5
    800001a0:	00f41023          	sh	a5,0(s0)
    800001a4:	00153513          	sltiu	a0,a0,1
    800001a8:	00240413          	addi	s0,s0,2
    800001ac:	e65ff0ef          	jal	ra,80000010 <check>
    800001b0:	00490913          	addi	s2,s2,4
    800001b4:	fc9418e3          	bne	s0,s1,80000184 <main+0x15c>
    800001b8:	02813083          	ld	ra,40(sp)
    800001bc:	02013403          	ld	s0,32(sp)
    800001c0:	01813483          	ld	s1,24(sp)
    800001c4:	01013903          	ld	s2,16(sp)
    800001c8:	00813983          	ld	s3,8(sp)
    800001cc:	00013a03          	ld	s4,0(sp)
    800001d0:	00000513          	addi	a0,zero,0
    800001d4:	03010113          	addi	sp,sp,48
    800001d8:	00008067          	jalr	zero,0(ra)

00000000800001dc <halt>:
    800001dc:	00050513          	addi	a0,a0,0
    800001e0:	00100073          	ebreak
    800001e4:	0000006f          	jal	zero,800001e4 <halt+0x8>

00000000800001e8 <_trm_init>:
    800001e8:	ff010113          	addi	sp,sp,-16
    800001ec:	00000517          	auipc	a0,0x0
    800001f0:	01c50513          	addi	a0,a0,28 # 80000208 <_etext>
    800001f4:	00113423          	sd	ra,8(sp)
    800001f8:	e31ff0ef          	jal	ra,80000028 <main>
    800001fc:	00050513          	addi	a0,a0,0
    80000200:	00100073          	ebreak
    80000204:	0000006f          	jal	zero,80000204 <_trm_init+0x1c>
