
/home/ysyx/OneStudentOneChip/pa2/am-kernels_dev/tests/cpu-tests/build/matrix-mul-riscv64-nemu.elf:     file format elf64-littleriscv


Disassembly of section .text:

0000000080000000 <_start>:
    80000000:	00000413          	addi	s0,zero,0
    80000004:	00009117          	auipc	sp,0x9
    80000008:	ffc10113          	addi	sp,sp,-4 # 80009000 <_end>
    8000000c:	138000ef          	jal	ra,80000144 <_trm_init>

0000000080000010 <check>:
    80000010:	00050463          	beq	a0,zero,80000018 <check+0x8>
    80000014:	00008067          	jalr	zero,0(ra)
    80000018:	ff010113          	addi	sp,sp,-16
    8000001c:	00100513          	addi	a0,zero,1
    80000020:	00113423          	sd	ra,8(sp)
    80000024:	114000ef          	jal	ra,80000138 <halt>

0000000080000028 <main>:
    80000028:	fb010113          	addi	sp,sp,-80
    8000002c:	02913c23          	sd	s1,56(sp)
    80000030:	03213823          	sd	s2,48(sp)
    80000034:	03313423          	sd	s3,40(sp)
    80000038:	03413023          	sd	s4,32(sp)
    8000003c:	01513c23          	sd	s5,24(sp)
    80000040:	01613823          	sd	s6,16(sp)
    80000044:	04113423          	sd	ra,72(sp)
    80000048:	04813023          	sd	s0,64(sp)
    8000004c:	01713423          	sd	s7,8(sp)
    80000050:	01813023          	sd	s8,0(sp)
    80000054:	00000497          	auipc	s1,0x0
    80000058:	11c48493          	addi	s1,s1,284 # 80000170 <a>
    8000005c:	00000a17          	auipc	s4,0x0
    80000060:	5c4a0a13          	addi	s4,s4,1476 # 80000620 <c>
    80000064:	00000997          	auipc	s3,0x0
    80000068:	29c98993          	addi	s3,s3,668 # 80000300 <ans>
    8000006c:	00000b17          	auipc	s6,0x0
    80000070:	294b0b13          	addi	s6,s6,660 # 80000300 <ans>
    80000074:	00000917          	auipc	s2,0x0
    80000078:	5d490913          	addi	s2,s2,1492 # 80000648 <c+0x28>
    8000007c:	00000a97          	auipc	s5,0x0
    80000080:	5a4a8a93          	addi	s5,s5,1444 # 80000620 <c>
    80000084:	000a8613          	addi	a2,s5,0
    80000088:	00098c13          	addi	s8,s3,0
    8000008c:	000a0b93          	addi	s7,s4,0
    80000090:	e7060413          	addi	s0,a2,-400
    80000094:	00048713          	addi	a4,s1,0
    80000098:	00000513          	addi	a0,zero,0
    8000009c:	00072783          	lw	a5,0(a4)
    800000a0:	00042683          	lw	a3,0(s0)
    800000a4:	02840413          	addi	s0,s0,40
    800000a8:	00470713          	addi	a4,a4,4
    800000ac:	02d787bb          	mulw	a5,a5,a3
    800000b0:	00a7853b          	addw	a0,a5,a0
    800000b4:	fec414e3          	bne	s0,a2,8000009c <main+0x74>
    800000b8:	000c2783          	lw	a5,0(s8)
    800000bc:	00aba023          	sw	a0,0(s7)
    800000c0:	004c0c13          	addi	s8,s8,4
    800000c4:	40a78533          	sub	a0,a5,a0
    800000c8:	00153513          	sltiu	a0,a0,1
    800000cc:	f45ff0ef          	jal	ra,80000010 <check>
    800000d0:	00100513          	addi	a0,zero,1
    800000d4:	f3dff0ef          	jal	ra,80000010 <check>
    800000d8:	00440613          	addi	a2,s0,4
    800000dc:	004b8b93          	addi	s7,s7,4
    800000e0:	fac918e3          	bne	s2,a2,80000090 <main+0x68>
    800000e4:	00100513          	addi	a0,zero,1
    800000e8:	02848493          	addi	s1,s1,40
    800000ec:	f25ff0ef          	jal	ra,80000010 <check>
    800000f0:	028a0a13          	addi	s4,s4,40
    800000f4:	02898993          	addi	s3,s3,40
    800000f8:	f96496e3          	bne	s1,s6,80000084 <main+0x5c>
    800000fc:	00100513          	addi	a0,zero,1
    80000100:	f11ff0ef          	jal	ra,80000010 <check>
    80000104:	04813083          	ld	ra,72(sp)
    80000108:	04013403          	ld	s0,64(sp)
    8000010c:	03813483          	ld	s1,56(sp)
    80000110:	03013903          	ld	s2,48(sp)
    80000114:	02813983          	ld	s3,40(sp)
    80000118:	02013a03          	ld	s4,32(sp)
    8000011c:	01813a83          	ld	s5,24(sp)
    80000120:	01013b03          	ld	s6,16(sp)
    80000124:	00813b83          	ld	s7,8(sp)
    80000128:	00013c03          	ld	s8,0(sp)
    8000012c:	00000513          	addi	a0,zero,0
    80000130:	05010113          	addi	sp,sp,80
    80000134:	00008067          	jalr	zero,0(ra)

0000000080000138 <halt>:
    80000138:	00050513          	addi	a0,a0,0
    8000013c:	00100073          	ebreak
    80000140:	0000006f          	jal	zero,80000140 <halt+0x8>

0000000080000144 <_trm_init>:
    80000144:	ff010113          	addi	sp,sp,-16
    80000148:	00000517          	auipc	a0,0x0
    8000014c:	02050513          	addi	a0,a0,32 # 80000168 <mainargs>
    80000150:	00113423          	sd	ra,8(sp)
    80000154:	ed5ff0ef          	jal	ra,80000028 <main>
    80000158:	00050513          	addi	a0,a0,0
    8000015c:	00100073          	ebreak
    80000160:	0000006f          	jal	zero,80000160 <_trm_init+0x1c>
