
/home/ysyx/OneStudentOneChip/pa2/am-kernels_dev/tests/cpu-tests/build/pascal-riscv64-nemu.elf:     file format elf64-littleriscv


Disassembly of section .text:

0000000080000000 <_start>:
    80000000:	00000413          	addi	s0,zero,0
    80000004:	00009117          	auipc	sp,0x9
    80000008:	ffc10113          	addi	sp,sp,-4 # 80009000 <_end>
    8000000c:	108000ef          	jal	ra,80000114 <_trm_init>

0000000080000010 <check>:
    80000010:	00050463          	beq	a0,zero,80000018 <check+0x8>
    80000014:	00008067          	jalr	zero,0(ra)
    80000018:	ff010113          	addi	sp,sp,-16
    8000001c:	00100513          	addi	a0,zero,1
    80000020:	00113423          	sd	ra,8(sp)
    80000024:	0e4000ef          	jal	ra,80000108 <halt>

0000000080000028 <main>:
    80000028:	00100793          	addi	a5,zero,1
    8000002c:	fe010113          	addi	sp,sp,-32
    80000030:	02079793          	slli	a5,a5,0x20
    80000034:	00113c23          	sd	ra,24(sp)
    80000038:	00813823          	sd	s0,16(sp)
    8000003c:	00913423          	sd	s1,8(sp)
    80000040:	01213023          	sd	s2,0(sp)
    80000044:	00000897          	auipc	a7,0x0
    80000048:	17c88893          	addi	a7,a7,380 # 800001c0 <a>
    8000004c:	00178793          	addi	a5,a5,1
    80000050:	00f8b023          	sd	a5,0(a7)
    80000054:	00000597          	auipc	a1,0x0
    80000058:	17458593          	addi	a1,a1,372 # 800001c8 <a+0x8>
    8000005c:	00000817          	auipc	a6,0x0
    80000060:	1e080813          	addi	a6,a6,480 # 8000023c <a+0x7c>
    80000064:	00100713          	addi	a4,zero,1
    80000068:	00100513          	addi	a0,zero,1
    8000006c:	00000417          	auipc	s0,0x0
    80000070:	15840413          	addi	s0,s0,344 # 800001c4 <a+0x4>
    80000074:	00040793          	addi	a5,s0,0
    80000078:	00100693          	addi	a3,zero,1
    8000007c:	0080006f          	jal	zero,80000084 <main+0x5c>
    80000080:	0007a703          	lw	a4,0(a5)
    80000084:	00d7063b          	addw	a2,a4,a3
    80000088:	00c7a023          	sw	a2,0(a5)
    8000008c:	00478793          	addi	a5,a5,4
    80000090:	00070693          	addi	a3,a4,0
    80000094:	feb796e3          	bne	a5,a1,80000080 <main+0x58>
    80000098:	00a7a023          	sw	a0,0(a5)
    8000009c:	00478593          	addi	a1,a5,4
    800000a0:	01058663          	beq	a1,a6,800000ac <main+0x84>
    800000a4:	0048a703          	lw	a4,4(a7)
    800000a8:	fc5ff06f          	jal	zero,8000006c <main+0x44>
    800000ac:	00000497          	auipc	s1,0x0
    800000b0:	09448493          	addi	s1,s1,148 # 80000140 <ans>
    800000b4:	00000917          	auipc	s2,0x0
    800000b8:	10890913          	addi	s2,s2,264 # 800001bc <ans+0x7c>
    800000bc:	00100793          	addi	a5,zero,1
    800000c0:	00c0006f          	jal	zero,800000cc <main+0xa4>
    800000c4:	00042783          	lw	a5,0(s0)
    800000c8:	00440413          	addi	s0,s0,4
    800000cc:	0004a503          	lw	a0,0(s1)
    800000d0:	00448493          	addi	s1,s1,4
    800000d4:	40f50533          	sub	a0,a0,a5
    800000d8:	00153513          	sltiu	a0,a0,1
    800000dc:	f35ff0ef          	jal	ra,80000010 <check>
    800000e0:	fe9912e3          	bne	s2,s1,800000c4 <main+0x9c>
    800000e4:	00100513          	addi	a0,zero,1
    800000e8:	f29ff0ef          	jal	ra,80000010 <check>
    800000ec:	01813083          	ld	ra,24(sp)
    800000f0:	01013403          	ld	s0,16(sp)
    800000f4:	00813483          	ld	s1,8(sp)
    800000f8:	00013903          	ld	s2,0(sp)
    800000fc:	00000513          	addi	a0,zero,0
    80000100:	02010113          	addi	sp,sp,32
    80000104:	00008067          	jalr	zero,0(ra)

0000000080000108 <halt>:
    80000108:	00050513          	addi	a0,a0,0
    8000010c:	00100073          	ebreak
    80000110:	0000006f          	jal	zero,80000110 <halt+0x8>

0000000080000114 <_trm_init>:
    80000114:	ff010113          	addi	sp,sp,-16
    80000118:	00000517          	auipc	a0,0x0
    8000011c:	02050513          	addi	a0,a0,32 # 80000138 <mainargs>
    80000120:	00113423          	sd	ra,8(sp)
    80000124:	f05ff0ef          	jal	ra,80000028 <main>
    80000128:	00050513          	addi	a0,a0,0
    8000012c:	00100073          	ebreak
    80000130:	0000006f          	jal	zero,80000130 <_trm_init+0x1c>
