
/home/ysyx/OneStudentOneChip/pa2/am-kernels_dev/tests/cpu-tests/build/recursion-riscv64-nemu.elf:     file format elf64-littleriscv


Disassembly of section .text:

0000000080000000 <_start>:
    80000000:	00000413          	addi	s0,zero,0
    80000004:	00009117          	auipc	sp,0x9
    80000008:	ffc10113          	addi	sp,sp,-4 # 80009000 <_end>
    8000000c:	248000ef          	jal	ra,80000254 <_trm_init>

0000000080000010 <f0>:
    80000010:	00000797          	auipc	a5,0x0
    80000014:	2a078793          	addi	a5,a5,672 # 800002b0 <lvl>
    80000018:	0007a703          	lw	a4,0(a5)
    8000001c:	00b75463          	bge	a4,a1,80000024 <f0+0x14>
    80000020:	00b7a023          	sw	a1,0(a5)
    80000024:	00000717          	auipc	a4,0x0
    80000028:	29070713          	addi	a4,a4,656 # 800002b4 <rec>
    8000002c:	00072783          	lw	a5,0(a4)
    80000030:	0017879b          	addiw	a5,a5,1
    80000034:	00f72023          	sw	a5,0(a4)
    80000038:	00a05e63          	bge	zero,a0,80000054 <f0+0x44>
    8000003c:	00300793          	addi	a5,zero,3
    80000040:	02f5453b          	divw	a0,a0,a5
    80000044:	0015859b          	addiw	a1,a1,1
    80000048:	00000797          	auipc	a5,0x0
    8000004c:	2607b783          	ld	a5,608(a5) # 800002a8 <func+0x18>
    80000050:	00078067          	jalr	zero,0(a5)
    80000054:	00100513          	addi	a0,zero,1
    80000058:	00008067          	jalr	zero,0(ra)

000000008000005c <f1>:
    8000005c:	00000797          	auipc	a5,0x0
    80000060:	25478793          	addi	a5,a5,596 # 800002b0 <lvl>
    80000064:	0007a703          	lw	a4,0(a5)
    80000068:	00b75463          	bge	a4,a1,80000070 <f1+0x14>
    8000006c:	00b7a023          	sw	a1,0(a5)
    80000070:	00000717          	auipc	a4,0x0
    80000074:	24470713          	addi	a4,a4,580 # 800002b4 <rec>
    80000078:	00072783          	lw	a5,0(a4)
    8000007c:	0017879b          	addiw	a5,a5,1
    80000080:	00f72023          	sw	a5,0(a4)
    80000084:	00a05c63          	bge	zero,a0,8000009c <f1+0x40>
    80000088:	0015859b          	addiw	a1,a1,1
    8000008c:	fff5051b          	addiw	a0,a0,-1
    80000090:	00000797          	auipc	a5,0x0
    80000094:	2007b783          	ld	a5,512(a5) # 80000290 <func>
    80000098:	00078067          	jalr	zero,0(a5)
    8000009c:	00100513          	addi	a0,zero,1
    800000a0:	00008067          	jalr	zero,0(ra)

00000000800000a4 <f2>:
    800000a4:	00000717          	auipc	a4,0x0
    800000a8:	20c70713          	addi	a4,a4,524 # 800002b0 <lvl>
    800000ac:	00072683          	lw	a3,0(a4)
    800000b0:	00050793          	addi	a5,a0,0
    800000b4:	00b6d463          	bge	a3,a1,800000bc <f2+0x18>
    800000b8:	00b72023          	sw	a1,0(a4)
    800000bc:	00000697          	auipc	a3,0x0
    800000c0:	1f868693          	addi	a3,a3,504 # 800002b4 <rec>
    800000c4:	0006a703          	lw	a4,0(a3)
    800000c8:	00100513          	addi	a0,zero,1
    800000cc:	0017071b          	addiw	a4,a4,1
    800000d0:	00e6a023          	sw	a4,0(a3)
    800000d4:	02f05863          	bge	zero,a5,80000104 <f2+0x60>
    800000d8:	ff010113          	addi	sp,sp,-16
    800000dc:	00113423          	sd	ra,8(sp)
    800000e0:	00078513          	addi	a0,a5,0
    800000e4:	0015859b          	addiw	a1,a1,1
    800000e8:	00000797          	auipc	a5,0x0
    800000ec:	1b07b783          	ld	a5,432(a5) # 80000298 <func+0x8>
    800000f0:	000780e7          	jalr	ra,0(a5)
    800000f4:	00813083          	ld	ra,8(sp)
    800000f8:	0095051b          	addiw	a0,a0,9
    800000fc:	01010113          	addi	sp,sp,16
    80000100:	00008067          	jalr	zero,0(ra)
    80000104:	00008067          	jalr	zero,0(ra)

0000000080000108 <f3>:
    80000108:	00000717          	auipc	a4,0x0
    8000010c:	1a870713          	addi	a4,a4,424 # 800002b0 <lvl>
    80000110:	00072683          	lw	a3,0(a4)
    80000114:	00050793          	addi	a5,a0,0
    80000118:	00b6d463          	bge	a3,a1,80000120 <f3+0x18>
    8000011c:	00b72023          	sw	a1,0(a4)
    80000120:	00000697          	auipc	a3,0x0
    80000124:	19468693          	addi	a3,a3,404 # 800002b4 <rec>
    80000128:	0006a703          	lw	a4,0(a3)
    8000012c:	00100513          	addi	a0,zero,1
    80000130:	0017071b          	addiw	a4,a4,1
    80000134:	00e6a023          	sw	a4,0(a3)
    80000138:	06f05a63          	bge	zero,a5,800001ac <f3+0xa4>
    8000013c:	fe010113          	addi	sp,sp,-32
    80000140:	01213023          	sd	s2,0(sp)
    80000144:	00000917          	auipc	s2,0x0
    80000148:	14c90913          	addi	s2,s2,332 # 80000290 <func>
    8000014c:	01093703          	ld	a4,16(s2)
    80000150:	00813823          	sd	s0,16(sp)
    80000154:	00913423          	sd	s1,8(sp)
    80000158:	0015841b          	addiw	s0,a1,1
    8000015c:	4017d493          	srai	s1,a5,0x1
    80000160:	00113c23          	sd	ra,24(sp)
    80000164:	00040593          	addi	a1,s0,0
    80000168:	00048513          	addi	a0,s1,0
    8000016c:	000700e7          	jalr	ra,0(a4)
    80000170:	01093783          	ld	a5,16(s2)
    80000174:	00040593          	addi	a1,s0,0
    80000178:	00050913          	addi	s2,a0,0
    8000017c:	00048513          	addi	a0,s1,0
    80000180:	000780e7          	jalr	ra,0(a5)
    80000184:	01813083          	ld	ra,24(sp)
    80000188:	01013403          	ld	s0,16(sp)
    8000018c:	0019179b          	slliw	a5,s2,0x1
    80000190:	012787bb          	addw	a5,a5,s2
    80000194:	0015151b          	slliw	a0,a0,0x1
    80000198:	00813483          	ld	s1,8(sp)
    8000019c:	00013903          	ld	s2,0(sp)
    800001a0:	00a7853b          	addw	a0,a5,a0
    800001a4:	02010113          	addi	sp,sp,32
    800001a8:	00008067          	jalr	zero,0(ra)
    800001ac:	00008067          	jalr	zero,0(ra)

00000000800001b0 <check>:
    800001b0:	00050463          	beq	a0,zero,800001b8 <check+0x8>
    800001b4:	00008067          	jalr	zero,0(ra)
    800001b8:	ff010113          	addi	sp,sp,-16
    800001bc:	00100513          	addi	a0,zero,1
    800001c0:	00113423          	sd	ra,8(sp)
    800001c4:	084000ef          	jal	ra,80000248 <halt>

00000000800001c8 <main>:
    800001c8:	ff010113          	addi	sp,sp,-16
    800001cc:	00004537          	lui	a0,0x4
    800001d0:	00113423          	sd	ra,8(sp)
    800001d4:	00813023          	sd	s0,0(sp)
    800001d8:	00000593          	addi	a1,zero,0
    800001dc:	00000797          	auipc	a5,0x0
    800001e0:	0b47b783          	ld	a5,180(a5) # 80000290 <func>
    800001e4:	82350513          	addi	a0,a0,-2013 # 3823 <_entry_offset+0x3823>
    800001e8:	000780e7          	jalr	ra,0(a5)
    800001ec:	00000417          	auipc	s0,0x0
    800001f0:	09440413          	addi	s0,s0,148 # 80000280 <ans>
    800001f4:	00042783          	lw	a5,0(s0)
    800001f8:	40a78533          	sub	a0,a5,a0
    800001fc:	00153513          	sltiu	a0,a0,1
    80000200:	fb1ff0ef          	jal	ra,800001b0 <check>
    80000204:	00442503          	lw	a0,4(s0)
    80000208:	00000797          	auipc	a5,0x0
    8000020c:	0ac7a783          	lw	a5,172(a5) # 800002b4 <rec>
    80000210:	40f50533          	sub	a0,a0,a5
    80000214:	00153513          	sltiu	a0,a0,1
    80000218:	f99ff0ef          	jal	ra,800001b0 <check>
    8000021c:	00842503          	lw	a0,8(s0)
    80000220:	00000797          	auipc	a5,0x0
    80000224:	0907a783          	lw	a5,144(a5) # 800002b0 <lvl>
    80000228:	40f50533          	sub	a0,a0,a5
    8000022c:	00153513          	sltiu	a0,a0,1
    80000230:	f81ff0ef          	jal	ra,800001b0 <check>
    80000234:	00813083          	ld	ra,8(sp)
    80000238:	00013403          	ld	s0,0(sp)
    8000023c:	00000513          	addi	a0,zero,0
    80000240:	01010113          	addi	sp,sp,16
    80000244:	00008067          	jalr	zero,0(ra)

0000000080000248 <halt>:
    80000248:	00050513          	addi	a0,a0,0
    8000024c:	00100073          	ebreak
    80000250:	0000006f          	jal	zero,80000250 <halt+0x8>

0000000080000254 <_trm_init>:
    80000254:	ff010113          	addi	sp,sp,-16
    80000258:	00000517          	auipc	a0,0x0
    8000025c:	02050513          	addi	a0,a0,32 # 80000278 <mainargs>
    80000260:	00113423          	sd	ra,8(sp)
    80000264:	f65ff0ef          	jal	ra,800001c8 <main>
    80000268:	00050513          	addi	a0,a0,0
    8000026c:	00100073          	ebreak
    80000270:	0000006f          	jal	zero,80000270 <_trm_init+0x1c>
