
/home/ysyx/OneStudentOneChip/pa2/am-kernels_dev/tests/cpu-tests/build/shuixianhua-riscv64-nemu.elf:     file format elf64-littleriscv


Disassembly of section .text:

0000000080000000 <_start>:
    80000000:	00000413          	addi	s0,zero,0
    80000004:	00009117          	auipc	sp,0x9
    80000008:	ffc10113          	addi	sp,sp,-4 # 80009000 <_end>
    8000000c:	100000ef          	jal	ra,8000010c <_trm_init>

0000000080000010 <check>:
    80000010:	00050463          	beq	a0,zero,80000018 <check+0x8>
    80000014:	00008067          	jalr	zero,0(ra)
    80000018:	ff010113          	addi	sp,sp,-16
    8000001c:	00100513          	addi	a0,zero,1
    80000020:	00113423          	sd	ra,8(sp)
    80000024:	0dc000ef          	jal	ra,80000100 <halt>

0000000080000028 <main>:
    80000028:	fc010113          	addi	sp,sp,-64
    8000002c:	02813823          	sd	s0,48(sp)
    80000030:	02913423          	sd	s1,40(sp)
    80000034:	03213023          	sd	s2,32(sp)
    80000038:	01313c23          	sd	s3,24(sp)
    8000003c:	01413823          	sd	s4,16(sp)
    80000040:	01513423          	sd	s5,8(sp)
    80000044:	02113c23          	sd	ra,56(sp)
    80000048:	06400413          	addi	s0,zero,100
    8000004c:	00000a93          	addi	s5,zero,0
    80000050:	1f400993          	addi	s3,zero,500
    80000054:	06400a13          	addi	s4,zero,100
    80000058:	00a00913          	addi	s2,zero,10
    8000005c:	00000497          	auipc	s1,0x0
    80000060:	0dc48493          	addi	s1,s1,220 # 80000138 <ans>
    80000064:	0014041b          	addiw	s0,s0,1
    80000068:	00040793          	addi	a5,s0,0
    8000006c:	07340063          	beq	s0,s3,800000cc <main+0xa4>
    80000070:	0327c73b          	divw	a4,a5,s2
    80000074:	0347c53b          	divw	a0,a5,s4
    80000078:	032766bb          	remw	a3,a4,s2
    8000007c:	0327e7bb          	remw	a5,a5,s2
    80000080:	02d6873b          	mulw	a4,a3,a3
    80000084:	02a505bb          	mulw	a1,a0,a0
    80000088:	02f7863b          	mulw	a2,a5,a5
    8000008c:	02d7073b          	mulw	a4,a4,a3
    80000090:	02a585bb          	mulw	a1,a1,a0
    80000094:	02f606bb          	mulw	a3,a2,a5
    80000098:	00b707bb          	addw	a5,a4,a1
    8000009c:	00d787bb          	addw	a5,a5,a3
    800000a0:	fc8792e3          	bne	a5,s0,80000064 <main+0x3c>
    800000a4:	002a9793          	slli	a5,s5,0x2
    800000a8:	00f487b3          	add	a5,s1,a5
    800000ac:	0007a503          	lw	a0,0(a5)
    800000b0:	001a8a9b          	addiw	s5,s5,1
    800000b4:	40850533          	sub	a0,a0,s0
    800000b8:	00153513          	sltiu	a0,a0,1
    800000bc:	f55ff0ef          	jal	ra,80000010 <check>
    800000c0:	0014041b          	addiw	s0,s0,1
    800000c4:	00040793          	addi	a5,s0,0
    800000c8:	fb3414e3          	bne	s0,s3,80000070 <main+0x48>
    800000cc:	ffca8513          	addi	a0,s5,-4
    800000d0:	00153513          	sltiu	a0,a0,1
    800000d4:	f3dff0ef          	jal	ra,80000010 <check>
    800000d8:	03813083          	ld	ra,56(sp)
    800000dc:	03013403          	ld	s0,48(sp)
    800000e0:	02813483          	ld	s1,40(sp)
    800000e4:	02013903          	ld	s2,32(sp)
    800000e8:	01813983          	ld	s3,24(sp)
    800000ec:	01013a03          	ld	s4,16(sp)
    800000f0:	00813a83          	ld	s5,8(sp)
    800000f4:	00000513          	addi	a0,zero,0
    800000f8:	04010113          	addi	sp,sp,64
    800000fc:	00008067          	jalr	zero,0(ra)

0000000080000100 <halt>:
    80000100:	00050513          	addi	a0,a0,0
    80000104:	00100073          	ebreak
    80000108:	0000006f          	jal	zero,80000108 <halt+0x8>

000000008000010c <_trm_init>:
    8000010c:	ff010113          	addi	sp,sp,-16
    80000110:	00000517          	auipc	a0,0x0
    80000114:	02050513          	addi	a0,a0,32 # 80000130 <mainargs>
    80000118:	00113423          	sd	ra,8(sp)
    8000011c:	f0dff0ef          	jal	ra,80000028 <main>
    80000120:	00050513          	addi	a0,a0,0
    80000124:	00100073          	ebreak
    80000128:	0000006f          	jal	zero,80000128 <_trm_init+0x1c>
