
/home/ysyx/OneStudentOneChip/pa2/am-kernels_dev/tests/cpu-tests/build/string-riscv64-nemu.elf:     file format elf64-littleriscv


Disassembly of section .text:

0000000080000000 <_start>:
    80000000:	00000413          	addi	s0,zero,0
    80000004:	00009117          	auipc	sp,0x9
    80000008:	ffc10113          	addi	sp,sp,-4 # 80009000 <_end>
    8000000c:	138000ef          	jal	ra,80000144 <_trm_init>

0000000080000010 <check>:
    80000010:	00050463          	beq	a0,zero,80000018 <check+0x8>
    80000014:	00008067          	jalr	zero,0(ra)
    80000018:	ff010113          	addi	sp,sp,-16
    8000001c:	00100513          	addi	a0,zero,1
    80000020:	00113423          	sd	ra,8(sp)
    80000024:	114000ef          	jal	ra,80000138 <halt>

0000000080000028 <main>:
    80000028:	fe010113          	addi	sp,sp,-32
    8000002c:	00813823          	sd	s0,16(sp)
    80000030:	00000417          	auipc	s0,0x0
    80000034:	5e840413          	addi	s0,s0,1512 # 80000618 <s>
    80000038:	01043583          	ld	a1,16(s0)
    8000003c:	00043503          	ld	a0,0(s0)
    80000040:	00113c23          	sd	ra,24(sp)
    80000044:	00913423          	sd	s1,8(sp)
    80000048:	1ec000ef          	jal	ra,80000234 <strcmp>
    8000004c:	00153513          	sltiu	a0,a0,1
    80000050:	fc1ff0ef          	jal	ra,80000010 <check>
    80000054:	00843583          	ld	a1,8(s0)
    80000058:	00043503          	ld	a0,0(s0)
    8000005c:	00000497          	auipc	s1,0x0
    80000060:	5f448493          	addi	s1,s1,1524 # 80000650 <str>
    80000064:	1d0000ef          	jal	ra,80000234 <strcmp>
    80000068:	01f5551b          	srliw	a0,a0,0x1f
    8000006c:	fa5ff0ef          	jal	ra,80000010 <check>
    80000070:	00843583          	ld	a1,8(s0)
    80000074:	00043503          	ld	a0,0(s0)
    80000078:	00158593          	addi	a1,a1,1
    8000007c:	00150513          	addi	a0,a0,1
    80000080:	1b4000ef          	jal	ra,80000234 <strcmp>
    80000084:	01f5551b          	srliw	a0,a0,0x1f
    80000088:	f89ff0ef          	jal	ra,80000010 <check>
    8000008c:	00843583          	ld	a1,8(s0)
    80000090:	00043503          	ld	a0,0(s0)
    80000094:	00258593          	addi	a1,a1,2
    80000098:	00250513          	addi	a0,a0,2
    8000009c:	198000ef          	jal	ra,80000234 <strcmp>
    800000a0:	01f5551b          	srliw	a0,a0,0x1f
    800000a4:	f6dff0ef          	jal	ra,80000010 <check>
    800000a8:	00843583          	ld	a1,8(s0)
    800000ac:	00043503          	ld	a0,0(s0)
    800000b0:	00358593          	addi	a1,a1,3
    800000b4:	00350513          	addi	a0,a0,3
    800000b8:	17c000ef          	jal	ra,80000234 <strcmp>
    800000bc:	01f5551b          	srliw	a0,a0,0x1f
    800000c0:	f51ff0ef          	jal	ra,80000010 <check>
    800000c4:	00000597          	auipc	a1,0x0
    800000c8:	58458593          	addi	a1,a1,1412 # 80000648 <str1>
    800000cc:	00048513          	addi	a0,s1,0
    800000d0:	094000ef          	jal	ra,80000164 <strcpy>
    800000d4:	01843583          	ld	a1,24(s0)
    800000d8:	0f4000ef          	jal	ra,800001cc <strcat>
    800000dc:	02043583          	ld	a1,32(s0)
    800000e0:	154000ef          	jal	ra,80000234 <strcmp>
    800000e4:	00153513          	sltiu	a0,a0,1
    800000e8:	f29ff0ef          	jal	ra,80000010 <check>
    800000ec:	00500613          	addi	a2,zero,5
    800000f0:	02300593          	addi	a1,zero,35
    800000f4:	00048513          	addi	a0,s1,0
    800000f8:	1a4000ef          	jal	ra,8000029c <memset>
    800000fc:	02843583          	ld	a1,40(s0)
    80000100:	00500613          	addi	a2,zero,5
    80000104:	200000ef          	jal	ra,80000304 <memcmp>
    80000108:	00153513          	sltiu	a0,a0,1
    8000010c:	f05ff0ef          	jal	ra,80000010 <check>
    80000110:	01813083          	ld	ra,24(sp)
    80000114:	01013403          	ld	s0,16(sp)
    80000118:	00813483          	ld	s1,8(sp)
    8000011c:	00000513          	addi	a0,zero,0
    80000120:	02010113          	addi	sp,sp,32
    80000124:	00008067          	jalr	zero,0(ra)

0000000080000128 <putch>:
    80000128:	00500793          	addi	a5,zero,5
    8000012c:	01d79793          	slli	a5,a5,0x1d
    80000130:	3ea78c23          	sb	a0,1016(a5)
    80000134:	00008067          	jalr	zero,0(ra)

0000000080000138 <halt>:
    80000138:	00050513          	addi	a0,a0,0
    8000013c:	00100073          	ebreak
    80000140:	0000006f          	jal	zero,80000140 <halt+0x8>

0000000080000144 <_trm_init>:
    80000144:	ff010113          	addi	sp,sp,-16
    80000148:	00000517          	auipc	a0,0x0
    8000014c:	4c850513          	addi	a0,a0,1224 # 80000610 <mainargs>
    80000150:	00113423          	sd	ra,8(sp)
    80000154:	ed5ff0ef          	jal	ra,80000028 <main>
    80000158:	00050513          	addi	a0,a0,0
    8000015c:	00100073          	ebreak
    80000160:	0000006f          	jal	zero,80000160 <_trm_init+0x1c>

0000000080000164 <strcpy>:
    80000164:	ff010113          	addi	sp,sp,-16
    80000168:	00813023          	sd	s0,0(sp)
    8000016c:	00113423          	sd	ra,8(sp)
    80000170:	00000417          	auipc	s0,0x0
    80000174:	27840413          	addi	s0,s0,632 # 800003e8 <_etext+0x7c>
    80000178:	04100513          	addi	a0,zero,65
    8000017c:	00140413          	addi	s0,s0,1
    80000180:	fa9ff0ef          	jal	ra,80000128 <putch>
    80000184:	00044503          	lbu	a0,0(s0)
    80000188:	fe051ae3          	bne	a0,zero,8000017c <strcpy+0x18>
    8000018c:	00000417          	auipc	s0,0x0
    80000190:	26c40413          	addi	s0,s0,620 # 800003f8 <_etext+0x8c>
    80000194:	04e00513          	addi	a0,zero,78
    80000198:	00140413          	addi	s0,s0,1
    8000019c:	f8dff0ef          	jal	ra,80000128 <putch>
    800001a0:	00044503          	lbu	a0,0(s0)
    800001a4:	fe051ae3          	bne	a0,zero,80000198 <strcpy+0x34>
    800001a8:	00000417          	auipc	s0,0x0
    800001ac:	2b040413          	addi	s0,s0,688 # 80000458 <_etext+0xec>
    800001b0:	02000513          	addi	a0,zero,32
    800001b4:	00140413          	addi	s0,s0,1
    800001b8:	f71ff0ef          	jal	ra,80000128 <putch>
    800001bc:	00044503          	lbu	a0,0(s0)
    800001c0:	fe051ae3          	bne	a0,zero,800001b4 <strcpy+0x50>
    800001c4:	00100513          	addi	a0,zero,1
    800001c8:	f71ff0ef          	jal	ra,80000138 <halt>

00000000800001cc <strcat>:
    800001cc:	ff010113          	addi	sp,sp,-16
    800001d0:	00813023          	sd	s0,0(sp)
    800001d4:	00113423          	sd	ra,8(sp)
    800001d8:	00000417          	auipc	s0,0x0
    800001dc:	21040413          	addi	s0,s0,528 # 800003e8 <_etext+0x7c>
    800001e0:	04100513          	addi	a0,zero,65
    800001e4:	00140413          	addi	s0,s0,1
    800001e8:	f41ff0ef          	jal	ra,80000128 <putch>
    800001ec:	00044503          	lbu	a0,0(s0)
    800001f0:	fe051ae3          	bne	a0,zero,800001e4 <strcat+0x18>
    800001f4:	00000417          	auipc	s0,0x0
    800001f8:	20440413          	addi	s0,s0,516 # 800003f8 <_etext+0x8c>
    800001fc:	04e00513          	addi	a0,zero,78
    80000200:	00140413          	addi	s0,s0,1
    80000204:	f25ff0ef          	jal	ra,80000128 <putch>
    80000208:	00044503          	lbu	a0,0(s0)
    8000020c:	fe051ae3          	bne	a0,zero,80000200 <strcat+0x34>
    80000210:	00000417          	auipc	s0,0x0
    80000214:	2a040413          	addi	s0,s0,672 # 800004b0 <_etext+0x144>
    80000218:	02000513          	addi	a0,zero,32
    8000021c:	00140413          	addi	s0,s0,1
    80000220:	f09ff0ef          	jal	ra,80000128 <putch>
    80000224:	00044503          	lbu	a0,0(s0)
    80000228:	fe051ae3          	bne	a0,zero,8000021c <strcat+0x50>
    8000022c:	00100513          	addi	a0,zero,1
    80000230:	f09ff0ef          	jal	ra,80000138 <halt>

0000000080000234 <strcmp>:
    80000234:	ff010113          	addi	sp,sp,-16
    80000238:	00813023          	sd	s0,0(sp)
    8000023c:	00113423          	sd	ra,8(sp)
    80000240:	00000417          	auipc	s0,0x0
    80000244:	1a840413          	addi	s0,s0,424 # 800003e8 <_etext+0x7c>
    80000248:	04100513          	addi	a0,zero,65
    8000024c:	00140413          	addi	s0,s0,1
    80000250:	ed9ff0ef          	jal	ra,80000128 <putch>
    80000254:	00044503          	lbu	a0,0(s0)
    80000258:	fe051ae3          	bne	a0,zero,8000024c <strcmp+0x18>
    8000025c:	00000417          	auipc	s0,0x0
    80000260:	19c40413          	addi	s0,s0,412 # 800003f8 <_etext+0x8c>
    80000264:	04e00513          	addi	a0,zero,78
    80000268:	00140413          	addi	s0,s0,1
    8000026c:	ebdff0ef          	jal	ra,80000128 <putch>
    80000270:	00044503          	lbu	a0,0(s0)
    80000274:	fe051ae3          	bne	a0,zero,80000268 <strcmp+0x34>
    80000278:	00000417          	auipc	s0,0x0
    8000027c:	29040413          	addi	s0,s0,656 # 80000508 <_etext+0x19c>
    80000280:	02000513          	addi	a0,zero,32
    80000284:	00140413          	addi	s0,s0,1
    80000288:	ea1ff0ef          	jal	ra,80000128 <putch>
    8000028c:	00044503          	lbu	a0,0(s0)
    80000290:	fe051ae3          	bne	a0,zero,80000284 <strcmp+0x50>
    80000294:	00100513          	addi	a0,zero,1
    80000298:	ea1ff0ef          	jal	ra,80000138 <halt>

000000008000029c <memset>:
    8000029c:	ff010113          	addi	sp,sp,-16
    800002a0:	00813023          	sd	s0,0(sp)
    800002a4:	00113423          	sd	ra,8(sp)
    800002a8:	00000417          	auipc	s0,0x0
    800002ac:	14040413          	addi	s0,s0,320 # 800003e8 <_etext+0x7c>
    800002b0:	04100513          	addi	a0,zero,65
    800002b4:	00140413          	addi	s0,s0,1
    800002b8:	e71ff0ef          	jal	ra,80000128 <putch>
    800002bc:	00044503          	lbu	a0,0(s0)
    800002c0:	fe051ae3          	bne	a0,zero,800002b4 <memset+0x18>
    800002c4:	00000417          	auipc	s0,0x0
    800002c8:	13440413          	addi	s0,s0,308 # 800003f8 <_etext+0x8c>
    800002cc:	04e00513          	addi	a0,zero,78
    800002d0:	00140413          	addi	s0,s0,1
    800002d4:	e55ff0ef          	jal	ra,80000128 <putch>
    800002d8:	00044503          	lbu	a0,0(s0)
    800002dc:	fe051ae3          	bne	a0,zero,800002d0 <memset+0x34>
    800002e0:	00000417          	auipc	s0,0x0
    800002e4:	28040413          	addi	s0,s0,640 # 80000560 <_etext+0x1f4>
    800002e8:	02000513          	addi	a0,zero,32
    800002ec:	00140413          	addi	s0,s0,1
    800002f0:	e39ff0ef          	jal	ra,80000128 <putch>
    800002f4:	00044503          	lbu	a0,0(s0)
    800002f8:	fe051ae3          	bne	a0,zero,800002ec <memset+0x50>
    800002fc:	00100513          	addi	a0,zero,1
    80000300:	e39ff0ef          	jal	ra,80000138 <halt>

0000000080000304 <memcmp>:
    80000304:	ff010113          	addi	sp,sp,-16
    80000308:	00813023          	sd	s0,0(sp)
    8000030c:	00113423          	sd	ra,8(sp)
    80000310:	00000417          	auipc	s0,0x0
    80000314:	0d840413          	addi	s0,s0,216 # 800003e8 <_etext+0x7c>
    80000318:	04100513          	addi	a0,zero,65
    8000031c:	00140413          	addi	s0,s0,1
    80000320:	e09ff0ef          	jal	ra,80000128 <putch>
    80000324:	00044503          	lbu	a0,0(s0)
    80000328:	fe051ae3          	bne	a0,zero,8000031c <memcmp+0x18>
    8000032c:	00000417          	auipc	s0,0x0
    80000330:	0cc40413          	addi	s0,s0,204 # 800003f8 <_etext+0x8c>
    80000334:	04e00513          	addi	a0,zero,78
    80000338:	00140413          	addi	s0,s0,1
    8000033c:	dedff0ef          	jal	ra,80000128 <putch>
    80000340:	00044503          	lbu	a0,0(s0)
    80000344:	fe051ae3          	bne	a0,zero,80000338 <memcmp+0x34>
    80000348:	00000417          	auipc	s0,0x0
    8000034c:	27040413          	addi	s0,s0,624 # 800005b8 <_etext+0x24c>
    80000350:	02000513          	addi	a0,zero,32
    80000354:	00140413          	addi	s0,s0,1
    80000358:	dd1ff0ef          	jal	ra,80000128 <putch>
    8000035c:	00044503          	lbu	a0,0(s0)
    80000360:	fe051ae3          	bne	a0,zero,80000354 <memcmp+0x50>
    80000364:	00100513          	addi	a0,zero,1
    80000368:	dd1ff0ef          	jal	ra,80000138 <halt>
